target datalayout = "e-m:e-p270:32:32-p271:32:32-p272:64:64-i64:64-i128:128-f80:128-n8:16:32:64-S128"
target triple = "x86_64-pc-linux-gnu"

%struct.archive_read = type { %struct.archive, ptr, i32, i64, i64, %struct.archive_read_client, [16 x %struct.archive_read_filter_bidder], ptr, i32, i64, i32, i32, [16 x %struct.archive_format_descriptor], ptr, ptr, ptr, %struct.anon }
%struct.archive = type { i32, i32, ptr, i32, ptr, i32, i32, ptr, %struct.archive_string, ptr, i32, i32, ptr, ptr, i64, i64, i64, i8, i64 }
%struct.archive_string = type { ptr, i64, i64 }
%struct.archive_read_client = type { ptr, ptr, ptr, ptr, ptr, ptr, i32, i32, i64, ptr }
%struct.archive_read_filter_bidder = type { ptr, ptr, ptr }
%struct.archive_format_descriptor = type { ptr, ptr, ptr, ptr, ptr, ptr, ptr, ptr, ptr, ptr, ptr }
%struct.anon = type { ptr, ptr, i32, ptr, ptr }
%struct.cab = type { i64, i64, i64, i64, i64, ptr, ptr, ptr, i64, %struct.cfheader, %struct.archive_wstring, i8, i8, i8, i8, i8, i64, ptr, i64, i32, ptr, ptr, ptr, [64 x i8], %struct.z_stream_s, i8, %struct.lzx_stream }
%struct.cfheader = type { i32, i32, i16, i16, i16, i16, i16, i8, i8, i8, i8, ptr, ptr, i32 }
%struct.archive_wstring = type { ptr, i64, i64 }
%struct.z_stream_s = type { ptr, i32, i64, ptr, i32, i64, ptr, ptr, ptr, ptr, ptr, i32, i64, i64 }
%struct.lzx_stream = type { ptr, i64, i64, ptr, i64, i64, ptr }
%struct.cffolder = type { i32, i16, i16, i16, ptr, %struct.cfdata, i32, i8 }
%struct.cfdata = type { i32, i16, i16, i16, i16, i16, i16, i64, i64, ptr, i32, [4 x i8], i32, ptr }

; Function Attrs: nounwind uwtable
define internal i32 @archive_read_format_cab_read_data_skip(ptr noundef %0) #0 {
  %2 = alloca i32, align 4
  %3 = alloca ptr, align 8
  %4 = alloca ptr, align 8
  %5 = alloca i64, align 8
  %6 = alloca i32, align 4
  %7 = alloca i32, align 4
  store ptr %0, ptr %3, align 8, !tbaa !9
  call void @llvm.lifetime.start.p0(i64 8, ptr %4) #11
  call void @llvm.lifetime.start.p0(i64 8, ptr %5) #11
  call void @llvm.lifetime.start.p0(i64 4, ptr %6) #11
  %8 = load ptr, ptr %3, align 8, !tbaa !9
  %9 = getelementptr inbounds nuw %struct.archive_read, ptr %8, i32 0, i32 13
  %10 = load ptr, ptr %9, align 8, !tbaa !39
  %11 = getelementptr inbounds nuw %struct.archive_format_descriptor, ptr %10, i32 0, i32 0
  %12 = load ptr, ptr %11, align 8, !tbaa !53
  store ptr %12, ptr %4, align 8, !tbaa !13
  %13 = load ptr, ptr %4, align 8, !tbaa !13
  %14 = getelementptr inbounds nuw %struct.cab, ptr %13, i32 0, i32 12
  %15 = load i8, ptr %14, align 1, !tbaa !62
  %16 = icmp ne i8 %15, 0
  br i1 %16, label %17, label %18

17:                                               ; preds = %1
  store i32 1, ptr %2, align 4
  store i32 1, ptr %7, align 4
  br label %108

18:                                               ; preds = %1
  %19 = load ptr, ptr %4, align 8, !tbaa !13
  %20 = getelementptr inbounds nuw %struct.cab, ptr %19, i32 0, i32 15
  %21 = load i8, ptr %20, align 4, !tbaa !98
  %22 = icmp ne i8 %21, 0
  br i1 %22, label %37, label %23

23:                                               ; preds = %18
  %24 = load ptr, ptr %4, align 8, !tbaa !13
  %25 = getelementptr inbounds nuw %struct.cab, ptr %24, i32 0, i32 1
  %26 = load i64, ptr %25, align 8, !tbaa !87
  %27 = load ptr, ptr %4, align 8, !tbaa !13
  %28 = getelementptr inbounds nuw %struct.cab, ptr %27, i32 0, i32 16
  %29 = load i64, ptr %28, align 8, !tbaa !99
  %30 = add nsw i64 %29, %26
  store i64 %30, ptr %28, align 8, !tbaa !99
  %31 = load ptr, ptr %4, align 8, !tbaa !13
  %32 = getelementptr inbounds nuw %struct.cab, ptr %31, i32 0, i32 1
  store i64 0, ptr %32, align 8, !tbaa !87
  %33 = load ptr, ptr %4, align 8, !tbaa !13
  %34 = getelementptr inbounds nuw %struct.cab, ptr %33, i32 0, i32 13
  store i8 1, ptr %34, align 2, !tbaa !65
  %35 = load ptr, ptr %4, align 8, !tbaa !13
  %36 = getelementptr inbounds nuw %struct.cab, ptr %35, i32 0, i32 14
  store i8 1, ptr %36, align 1, !tbaa !66
  store i32 0, ptr %2, align 4
  store i32 1, ptr %7, align 4
  br label %108

37:                                               ; preds = %18
  %38 = load ptr, ptr %4, align 8, !tbaa !13
  %39 = getelementptr inbounds nuw %struct.cab, ptr %38, i32 0, i32 2
  %40 = load i64, ptr %39, align 8, !tbaa !69
  %41 = icmp ne i64 %40, 0
  br i1 %41, label %42, label %56

42:                                               ; preds = %37
  %43 = load ptr, ptr %3, align 8, !tbaa !9
  %44 = load ptr, ptr %4, align 8, !tbaa !13
  %45 = getelementptr inbounds nuw %struct.cab, ptr %44, i32 0, i32 2
  %46 = load i64, ptr %45, align 8, !tbaa !69
  %47 = call i64 @cab_consume_cfdata(ptr noundef %43, i64 noundef %46)
  %48 = trunc i64 %47 to i32
  store i32 %48, ptr %6, align 4, !tbaa !11
  %49 = load ptr, ptr %4, align 8, !tbaa !13
  %50 = getelementptr inbounds nuw %struct.cab, ptr %49, i32 0, i32 2
  store i64 0, ptr %50, align 8, !tbaa !69
  %51 = load i32, ptr %6, align 4, !tbaa !11
  %52 = icmp slt i32 %51, 0
  br i1 %52, label %53, label %55

53:                                               ; preds = %42
  %54 = load i32, ptr %6, align 4, !tbaa !11
  store i32 %54, ptr %2, align 4
  store i32 1, ptr %7, align 4
  br label %108

55:                                               ; preds = %42
  br label %70

56:                                               ; preds = %37
  %57 = load ptr, ptr %4, align 8, !tbaa !13
  %58 = getelementptr inbounds nuw %struct.cab, ptr %57, i32 0, i32 7
  %59 = load ptr, ptr %58, align 8, !tbaa !77
  %60 = icmp eq ptr %59, null
  br i1 %60, label %61, label %69

61:                                               ; preds = %56
  %62 = load ptr, ptr %3, align 8, !tbaa !9
  %63 = call i32 @cab_next_cfdata(ptr noundef %62)
  store i32 %63, ptr %6, align 4, !tbaa !11
  %64 = load i32, ptr %6, align 4, !tbaa !11
  %65 = icmp slt i32 %64, 0
  br i1 %65, label %66, label %68

66:                                               ; preds = %61
  %67 = load i32, ptr %6, align 4, !tbaa !11
  store i32 %67, ptr %2, align 4
  store i32 1, ptr %7, align 4
  br label %108

68:                                               ; preds = %61
  br label %69

69:                                               ; preds = %68, %56
  br label %70

70:                                               ; preds = %69, %55
  %71 = load ptr, ptr %4, align 8, !tbaa !13
  %72 = getelementptr inbounds nuw %struct.cab, ptr %71, i32 0, i32 14
  %73 = load i8, ptr %72, align 1, !tbaa !66
  %74 = icmp ne i8 %73, 0
  br i1 %74, label %75, label %76

75:                                               ; preds = %70
  store i32 0, ptr %2, align 4
  store i32 1, ptr %7, align 4
  br label %108

76:                                               ; preds = %70
  %77 = load ptr, ptr %3, align 8, !tbaa !9
  %78 = load ptr, ptr %4, align 8, !tbaa !13
  %79 = getelementptr inbounds nuw %struct.cab, ptr %78, i32 0, i32 1
  %80 = load i64, ptr %79, align 8, !tbaa !87
  %81 = call i64 @cab_consume_cfdata(ptr noundef %77, i64 noundef %80)
  store i64 %81, ptr %5, align 8, !tbaa !35
  %82 = load i64, ptr %5, align 8, !tbaa !35
  %83 = icmp slt i64 %82, 0
  br i1 %83, label %84, label %85

84:                                               ; preds = %76
  store i32 -30, ptr %2, align 4
  store i32 1, ptr %7, align 4
  br label %108

85:                                               ; preds = %76
  %86 = load ptr, ptr %4, align 8, !tbaa !13
  %87 = getelementptr inbounds nuw %struct.cab, ptr %86, i32 0, i32 5
  %88 = load ptr, ptr %87, align 8, !tbaa !71
  %89 = getelementptr inbounds nuw %struct.cffolder, ptr %88, i32 0, i32 2
  %90 = load i16, ptr %89, align 2, !tbaa !100
  %91 = zext i16 %90 to i32
  %92 = icmp eq i32 %91, 0
  br i1 %92, label %93, label %103

93:                                               ; preds = %85
  %94 = load ptr, ptr %4, align 8, !tbaa !13
  %95 = getelementptr inbounds nuw %struct.cab, ptr %94, i32 0, i32 7
  %96 = load ptr, ptr %95, align 8, !tbaa !77
  %97 = icmp ne ptr %96, null
  br i1 %97, label %98, label %103

98:                                               ; preds = %93
  %99 = load ptr, ptr %4, align 8, !tbaa !13
  %100 = getelementptr inbounds nuw %struct.cab, ptr %99, i32 0, i32 7
  %101 = load ptr, ptr %100, align 8, !tbaa !77
  %102 = getelementptr inbounds nuw %struct.cfdata, ptr %101, i32 0, i32 7
  store i64 0, ptr %102, align 8, !tbaa !101
  br label %103

103:                                              ; preds = %98, %93, %85
  %104 = load ptr, ptr %4, align 8, !tbaa !13
  %105 = getelementptr inbounds nuw %struct.cab, ptr %104, i32 0, i32 13
  store i8 1, ptr %105, align 2, !tbaa !65
  %106 = load ptr, ptr %4, align 8, !tbaa !13
  %107 = getelementptr inbounds nuw %struct.cab, ptr %106, i32 0, i32 14
  store i8 1, ptr %107, align 1, !tbaa !66
  store i32 0, ptr %2, align 4
  store i32 1, ptr %7, align 4
  br label %108

108:                                              ; preds = %103, %84, %75, %66, %53, %23, %17
  call void @llvm.lifetime.end.p0(i64 4, ptr %6) #11
  call void @llvm.lifetime.end.p0(i64 8, ptr %5) #11
  call void @llvm.lifetime.end.p0(i64 8, ptr %4) #11
  %109 = load i32, ptr %2, align 4
  ret i32 %109
}