; Function Attrs: nounwind uwtable
define internal range(i32 -2147483648, 2) i32 @archive_read_format_cab_read_data_skip(ptr noundef %0) #0 {
  %2 = getelementptr inbounds nuw i8, ptr %0, i64 2072
  %3 = load ptr, ptr %2, align 8, !tbaa !11
  %4 = load ptr, ptr %3, align 8, !tbaa !29
  %5 = getelementptr inbounds nuw i8, ptr %4, i64 145
  %6 = load i8, ptr %5, align 1, !tbaa !82
  %.not = icmp eq i8 %6, 0
  br i1 %.not, label %7, label %53

7:                                                ; preds = %1
  %8 = getelementptr inbounds nuw i8, ptr %4, i64 148
  %9 = load i8, ptr %8, align 4, !tbaa !102
  %.not31 = icmp eq i8 %9, 0
  br i1 %.not31, label %10, label %18

10:                                               ; preds = %7
  %11 = getelementptr inbounds nuw i8, ptr %4, i64 8
  %12 = load i64, ptr %11, align 8, !tbaa !99
  %13 = getelementptr inbounds nuw i8, ptr %4, i64 152
  %14 = load i64, ptr %13, align 8, !tbaa !103
  %15 = add nsw i64 %14, %12
  store i64 %15, ptr %13, align 8, !tbaa !103
  store i64 0, ptr %11, align 8, !tbaa !99
  %16 = getelementptr inbounds nuw i8, ptr %4, i64 146
  store i8 1, ptr %16, align 2, !tbaa !83
  %17 = getelementptr inbounds nuw i8, ptr %4, i64 147
  store i8 1, ptr %17, align 1, !tbaa !84
  br label %53

18:                                               ; preds = %7
  %19 = getelementptr inbounds nuw i8, ptr %4, i64 16
  %20 = load i64, ptr %19, align 8, !tbaa !104
  %.not32 = icmp eq i64 %20, 0
  br i1 %.not32, label %25, label %21

21:                                               ; preds = %18
  %22 = tail call fastcc i64 @cab_consume_cfdata(ptr noundef nonnull %0, i64 noundef %20)
  %23 = trunc i64 %22 to i32
  store i64 0, ptr %19, align 8, !tbaa !104
  %24 = icmp slt i32 %23, 0
  br i1 %24, label %53, label %32

25:                                               ; preds = %18
  %26 = getelementptr inbounds nuw i8, ptr %4, i64 56
  %27 = load ptr, ptr %26, align 8, !tbaa !87
  %28 = icmp eq ptr %27, null
  br i1 %28, label %29, label %32

29:                                               ; preds = %25
  %30 = tail call fastcc i32 @cab_next_cfdata(ptr noundef nonnull %0)
  %31 = icmp slt i32 %30, 0
  br i1 %31, label %53, label %32

32:                                               ; preds = %25, %29, %21
  %33 = getelementptr inbounds nuw i8, ptr %4, i64 147
  %34 = load i8, ptr %33, align 1, !tbaa !84
  %.not33 = icmp eq i8 %34, 0
  br i1 %.not33, label %35, label %53

35:                                               ; preds = %32
  %36 = getelementptr inbounds nuw i8, ptr %4, i64 8
  %37 = load i64, ptr %36, align 8, !tbaa !99
  %38 = tail call fastcc i64 @cab_consume_cfdata(ptr noundef nonnull %0, i64 noundef %37)
  %39 = icmp slt i64 %38, 0
  br i1 %39, label %53, label %40

40:                                               ; preds = %35
  %41 = getelementptr inbounds nuw i8, ptr %4, i64 40
  %42 = load ptr, ptr %41, align 8, !tbaa !86
  %43 = getelementptr inbounds nuw i8, ptr %42, i64 6
  %44 = load i16, ptr %43, align 2, !tbaa !66
  %45 = icmp eq i16 %44, 0
  br i1 %45, label %46, label %51

46:                                               ; preds = %40
  %47 = getelementptr inbounds nuw i8, ptr %4, i64 56
  %48 = load ptr, ptr %47, align 8, !tbaa !87
  %.not34 = icmp eq ptr %48, null
  br i1 %.not34, label %51, label %49

49:                                               ; preds = %46
  %50 = getelementptr inbounds nuw i8, ptr %48, i64 16
  store i64 0, ptr %50, align 8, !tbaa !106
  br label %51

51:                                               ; preds = %49, %46, %40
  %52 = getelementptr inbounds nuw i8, ptr %4, i64 146
  store i8 1, ptr %52, align 2, !tbaa !83
  store i8 1, ptr %33, align 1, !tbaa !84
  br label %53

53:                                               ; preds = %35, %32, %29, %21, %1, %51, %10
  %.0 = phi i32 [ 0, %51 ], [ 0, %10 ], [ 1, %1 ], [ %23, %21 ], [ %30, %29 ], [ 0, %32 ], [ -30, %35 ]
  ret i32 %.0
}